; Function Attrs: mustprogress uwtable
define hidden void @_ZN2cv3hal12cpu_baseline19cvtOnePlaneBGRtoYUVEPKhmPhmiiibii(ptr noundef %0, i64 noundef %1, ptr noundef %2, i64 noundef %3, i32 noundef %4, i32 noundef %5, i32 noundef %6, i1 noundef zeroext %7, i32 noundef %8, i32 noundef %9) local_unnamed_addr #0 personality ptr @__gxx_personality_v0 {
  %11 = alloca %"class.cv::utils::trace::details::Region", align 8
  %12 = alloca %"class.std::__cxx11::basic_string", align 8
  %13 = alloca %"class.std::allocator", align 1
  call void @_ZN2cv5utils5trace7details6RegionC1ERKNS3_21LocationStaticStorageE(ptr noundef nonnull align 8 dereferenceable(12) %11, ptr noundef nonnull align 8 dereferenceable(32) @_ZZN2cv3hal12cpu_baseline19cvtOnePlaneBGRtoYUVEPKhmPhmiiibiiE26__cv_trace_location_fn2176)
  %14 = mul nsw i32 %6, 1000
  %15 = select i1 %7, i32 200, i32 0
  %16 = add nsw i32 %15, %14
  %17 = mul nsw i32 %8, 10
  %18 = add nsw i32 %16, %17
  %19 = add nsw i32 %18, %9
  switch i32 %19, label %31 [
    i32 3000, label %39
    i32 3001, label %20
    i32 3010, label %21
    i32 3200, label %22
    i32 3201, label %23
    i32 3210, label %24
    i32 4000, label %25
    i32 4001, label %26
    i32 4010, label %27
    i32 4200, label %28
    i32 4201, label %29
    i32 4210, label %30
  ]

20:                                               ; preds = %10
  br label %39

21:                                               ; preds = %10
  br label %39

22:                                               ; preds = %10
  br label %39

23:                                               ; preds = %10
  br label %39

24:                                               ; preds = %10
  br label %39

25:                                               ; preds = %10
  br label %39

26:                                               ; preds = %10
  br label %39

27:                                               ; preds = %10
  br label %39

28:                                               ; preds = %10
  br label %39

29:                                               ; preds = %10
  br label %39

30:                                               ; preds = %10
  br label %39

31:                                               ; preds = %10
  call void @_ZNSaIcEC1Ev(ptr noundef nonnull align 1 dereferenceable(1) %13) #12
  invoke void @_ZNSt7__cxx1112basic_stringIcSt11char_traitsIcESaIcEEC1EPKcRKS3_(ptr noundef nonnull align 8 dereferenceable(32) %12, ptr noundef nonnull @.str.4, ptr noundef nonnull align 1 dereferenceable(1) %13)
          to label %32 unwind label %34

32:                                               ; preds = %31
  invoke void @_ZN2cv5errorEiRKNSt7__cxx1112basic_stringIcSt11char_traitsIcESaIcEEEPKcS9_i(i32 noundef -206, ptr noundef nonnull align 8 dereferenceable(32) %12, ptr noundef nonnull @__func__._ZN2cv3hal12cpu_baseline19cvtOnePlaneBGRtoYUVEPKhmPhmiiibii, ptr noundef nonnull @.str.1, i32 noundef 2194) #14
          to label %33 unwind label %36

33:                                               ; preds = %32
  unreachable

34:                                               ; preds = %31
  %35 = landingpad { ptr, i32 }
          cleanup
  br label %38

36:                                               ; preds = %32
  %37 = landingpad { ptr, i32 }
          cleanup
  call void @_ZNSt7__cxx1112basic_stringIcSt11char_traitsIcESaIcEED1Ev(ptr noundef nonnull align 8 dereferenceable(32) %12) #12
  br label %38

38:                                               ; preds = %36, %34
  %.pn = phi { ptr, i32 } [ %37, %36 ], [ %35, %34 ]
  call void @_ZNSaIcED1Ev(ptr noundef nonnull align 1 dereferenceable(1) %13) #12
  br label %49

39:                                               ; preds = %10, %30, %29, %28, %27, %26, %25, %24, %23, %22, %21, %20
  %.015 = phi ptr [ @_ZN2cv3hal12cpu_baseline12_GLOBAL__N_114cvtRGBtoYUV422ILi2ELi1ELi0ELi4EEEvPhmPKhmii, %30 ], [ @_ZN2cv3hal12cpu_baseline12_GLOBAL__N_114cvtRGBtoYUV422ILi2ELi0ELi1ELi4EEEvPhmPKhmii, %29 ], [ @_ZN2cv3hal12cpu_baseline12_GLOBAL__N_114cvtRGBtoYUV422ILi2ELi0ELi0ELi4EEEvPhmPKhmii, %28 ], [ @_ZN2cv3hal12cpu_baseline12_GLOBAL__N_114cvtRGBtoYUV422ILi0ELi1ELi0ELi4EEEvPhmPKhmii, %27 ], [ @_ZN2cv3hal12cpu_baseline12_GLOBAL__N_114cvtRGBtoYUV422ILi0ELi0ELi1ELi4EEEvPhmPKhmii, %26 ], [ @_ZN2cv3hal12cpu_baseline12_GLOBAL__N_114cvtRGBtoYUV422ILi0ELi0ELi0ELi4EEEvPhmPKhmii, %25 ], [ @_ZN2cv3hal12cpu_baseline12_GLOBAL__N_114cvtRGBtoYUV422ILi2ELi1ELi0ELi3EEEvPhmPKhmii, %24 ], [ @_ZN2cv3hal12cpu_baseline12_GLOBAL__N_114cvtRGBtoYUV422ILi2ELi0ELi1ELi3EEEvPhmPKhmii, %23 ], [ @_ZN2cv3hal12cpu_baseline12_GLOBAL__N_114cvtRGBtoYUV422ILi2ELi0ELi0ELi3EEEvPhmPKhmii, %22 ], [ @_ZN2cv3hal12cpu_baseline12_GLOBAL__N_114cvtRGBtoYUV422ILi0ELi1ELi0ELi3EEEvPhmPKhmii, %21 ], [ @_ZN2cv3hal12cpu_baseline12_GLOBAL__N_114cvtRGBtoYUV422ILi0ELi0ELi1ELi3EEEvPhmPKhmii, %20 ], [ @_ZN2cv3hal12cpu_baseline12_GLOBAL__N_114cvtRGBtoYUV422ILi0ELi0ELi0ELi3EEEvPhmPKhmii, %10 ]
  invoke void %.015(ptr noundef %2, i64 noundef %3, ptr noundef %0, i64 noundef %1, i32 noundef %4, i32 noundef %5)
          to label %40 unwind label %47

40:                                               ; preds = %39
  %41 = getelementptr inbounds i8, ptr %11, i64 8
  %42 = load i32, ptr %41, align 8
  %.not.i = icmp eq i32 %42, 0
  br i1 %.not.i, label %_ZN2cv5utils5trace7details6RegionD2Ev.exit, label %43

43:                                               ; preds = %40
  invoke void @_ZN2cv5utils5trace7details6Region7destroyEv(ptr noundef nonnull align 8 dereferenceable(12) %11)
          to label %_ZN2cv5utils5trace7details6RegionD2Ev.exit unwind label %44

44:                                               ; preds = %43
  %45 = landingpad { ptr, i32 }
          catch ptr null
  %46 = extractvalue { ptr, i32 } %45, 0
  call void @__clang_call_terminate(ptr %46) #13
  unreachable

_ZN2cv5utils5trace7details6RegionD2Ev.exit:       ; preds = %40, %43
  ret void

47:                                               ; preds = %39
  %48 = landingpad { ptr, i32 }
          cleanup
  br label %49

49:                                               ; preds = %47, %38
  %.pn.pn = phi { ptr, i32 } [ %.pn, %38 ], [ %48, %47 ]
  call void @_ZN2cv5utils5trace7details6RegionD2Ev(ptr noundef nonnull align 8 dereferenceable(12) %11) #12
  resume { ptr, i32 } %.pn.pn
}